target datalayout = "e-m:e-p270:32:32-p271:32:32-p272:64:64-i64:64-i128:128-f80:128-n8:16:32:64-S128"
target triple = "x86_64-pc-linux-gnu"

%struct.sharedObjectsStruct = type { ptr, ptr, ptr, ptr, ptr, ptr, ptr, ptr, [4 x ptr], [4 x ptr], [4 x ptr], [4 x ptr], ptr, ptr, ptr, ptr, ptr, ptr, ptr, ptr, ptr, ptr, ptr, ptr, ptr, ptr, ptr, ptr, ptr, ptr, ptr, ptr, ptr, ptr, ptr, ptr, ptr, ptr, ptr, ptr, ptr, ptr, ptr, ptr, ptr, ptr, ptr, ptr, ptr, ptr, ptr, ptr, ptr, ptr, ptr, ptr, ptr, ptr, ptr, ptr, ptr, ptr, ptr, ptr, ptr, ptr, ptr, ptr, ptr, ptr, ptr, ptr, ptr, ptr, ptr, ptr, ptr, ptr, ptr, ptr, ptr, ptr, ptr, ptr, ptr, ptr, ptr, ptr, [10 x ptr], [10000 x ptr], [32 x ptr], [32 x ptr], [32 x ptr], [32 x ptr], ptr, ptr }
%struct.redisObject = type { i32, i32, ptr }
%struct.zset = type { ptr, ptr }
%struct.client = type { i64, i64, ptr, i8, i8, i8, i8, i32, ptr, ptr, ptr, ptr, ptr, i64, i64, i32, ptr, i32, i32, ptr, i64, ptr, ptr, ptr, ptr, ptr, i32, i32, i64, ptr, i64, ptr, i64, i64, i64, i32, ptr, i64, i64, i32, i32, i32, i32, i64, i64, ptr, i64, i64, i64, i64, i64, i64, i64, i64, [41 x i8], i32, ptr, i32, i32, i64, %struct.multiState, %struct.blockingState, i64, ptr, ptr, ptr, ptr, ptr, ptr, ptr, ptr, ptr, ptr, ptr, ptr, ptr, ptr, i64, ptr, i64, i32, ptr, ptr, ptr, i64, %struct.listNode, i64, i64, i32, i64, ptr }
%struct.multiState = type { ptr, i32, i32, i32, i64, i32 }
%struct.blockingState = type { i32, i64, i32, ptr, i32, i32, i64, ptr, ptr, i64 }
%struct.listNode = type { ptr, ptr, ptr }

@.str.1 = private unnamed_addr constant [9 x i8] c"t_zset.c\00", align 1
@shared = external global %struct.sharedObjectsStruct, align 8
@.str.9 = private unnamed_addr constant [28 x i8] c"Unknown sorted set encoding\00", align 1

; Function Attrs: nounwind uwtable
define dso_local i32 @zsetScore(ptr noundef %0, ptr noundef %1, ptr noundef %2) #0 {
  %4 = alloca i32, align 4
  %5 = alloca ptr, align 8
  %6 = alloca ptr, align 8
  %7 = alloca ptr, align 8
  %8 = alloca ptr, align 8
  %9 = alloca ptr, align 8
  %10 = alloca i32, align 4
  store ptr %0, ptr %5, align 8, !tbaa !78
  store ptr %1, ptr %6, align 8, !tbaa !11
  store ptr %2, ptr %7, align 8, !tbaa !105
  %11 = load ptr, ptr %5, align 8, !tbaa !78
  %12 = icmp ne ptr %11, null
  br i1 %12, label %13, label %16

13:                                               ; preds = %3
  %14 = load ptr, ptr %6, align 8, !tbaa !11
  %15 = icmp ne ptr %14, null
  br i1 %15, label %17, label %16

16:                                               ; preds = %13, %3
  store i32 -1, ptr %4, align 4
  br label %62

17:                                               ; preds = %13
  %18 = load ptr, ptr %5, align 8, !tbaa !78
  %19 = load i32, ptr %18, align 8
  %20 = lshr i32 %19, 4
  %21 = and i32 %20, 15
  %22 = icmp eq i32 %21, 11
  br i1 %22, label %23, label %33

23:                                               ; preds = %17
  %24 = load ptr, ptr %5, align 8, !tbaa !78
  %25 = getelementptr inbounds nuw %struct.redisObject, ptr %24, i32 0, i32 2
  %26 = load ptr, ptr %25, align 8, !tbaa !84
  %27 = load ptr, ptr %6, align 8, !tbaa !11
  %28 = load ptr, ptr %7, align 8, !tbaa !105
  %29 = call ptr @zzlFind(ptr noundef %26, ptr noundef %27, ptr noundef %28)
  %30 = icmp eq ptr %29, null
  br i1 %30, label %31, label %32

31:                                               ; preds = %23
  store i32 -1, ptr %4, align 4
  br label %62

32:                                               ; preds = %23
  br label %61

33:                                               ; preds = %17
  %34 = load ptr, ptr %5, align 8, !tbaa !78
  %35 = load i32, ptr %34, align 8
  %36 = lshr i32 %35, 4
  %37 = and i32 %36, 15
  %38 = icmp eq i32 %37, 7
  br i1 %38, label %39, label %59

39:                                               ; preds = %33
  call void @llvm.lifetime.start.p0(i64 8, ptr %8) #12
  %40 = load ptr, ptr %5, align 8, !tbaa !78
  %41 = getelementptr inbounds nuw %struct.redisObject, ptr %40, i32 0, i32 2
  %42 = load ptr, ptr %41, align 8, !tbaa !84
  store ptr %42, ptr %8, align 8, !tbaa !137
  call void @llvm.lifetime.start.p0(i64 8, ptr %9) #12
  %43 = load ptr, ptr %8, align 8, !tbaa !137
  %44 = getelementptr inbounds nuw %struct.zset, ptr %43, i32 0, i32 0
  %45 = load ptr, ptr %44, align 8, !tbaa !139
  %46 = load ptr, ptr %6, align 8, !tbaa !11
  %47 = call ptr @dictFind(ptr noundef %45, ptr noundef %46)
  store ptr %47, ptr %9, align 8, !tbaa !142
  %48 = load ptr, ptr %9, align 8, !tbaa !142
  %49 = icmp eq ptr %48, null
  br i1 %49, label %50, label %51

50:                                               ; preds = %39
  store i32 -1, ptr %4, align 4
  store i32 1, ptr %10, align 4
  br label %56

51:                                               ; preds = %39
  %52 = load ptr, ptr %9, align 8, !tbaa !142
  %53 = call ptr @dictGetVal(ptr noundef %52)
  %54 = load double, ptr %53, align 8, !tbaa !9
  %55 = load ptr, ptr %7, align 8, !tbaa !105
  store double %54, ptr %55, align 8, !tbaa !9
  store i32 0, ptr %10, align 4
  br label %56

56:                                               ; preds = %51, %50
  call void @llvm.lifetime.end.p0(i64 8, ptr %9) #12
  call void @llvm.lifetime.end.p0(i64 8, ptr %8) #12
  %57 = load i32, ptr %10, align 4
  switch i32 %57, label %64 [
    i32 0, label %58
    i32 1, label %62
  ]

58:                                               ; preds = %56
  br label %60

59:                                               ; preds = %33
  call void (ptr, i32, ptr, ...) @_serverPanic(ptr noundef @.str.1, i32 noundef 1359, ptr noundef @.str.9)
  call void @abort() #14
  unreachable

60:                                               ; preds = %58
  br label %61

61:                                               ; preds = %60, %32
  store i32 0, ptr %4, align 4
  br label %62

62:                                               ; preds = %61, %56, %31, %16
  %63 = load i32, ptr %4, align 4
  ret i32 %63

64:                                               ; preds = %56
  unreachable
}

; Function Attrs: nounwind uwtable
define dso_local void @zscoreCommand(ptr noundef %0) #0 {
  %2 = alloca ptr, align 8
  %3 = alloca ptr, align 8
  %4 = alloca ptr, align 8
  %5 = alloca double, align 8
  %6 = alloca i32, align 4
  store ptr %0, ptr %2, align 8, !tbaa !150
  call void @llvm.lifetime.start.p0(i64 8, ptr %3) #12
  %7 = load ptr, ptr %2, align 8, !tbaa !150
  %8 = getelementptr inbounds nuw %struct.client, ptr %7, i32 0, i32 16
  %9 = load ptr, ptr %8, align 8, !tbaa !151
  %10 = getelementptr inbounds ptr, ptr %9, i64 1
  %11 = load ptr, ptr %10, align 8, !tbaa !78
  store ptr %11, ptr %3, align 8, !tbaa !78
  call void @llvm.lifetime.start.p0(i64 8, ptr %4) #12
  call void @llvm.lifetime.start.p0(i64 8, ptr %5) #12
  %12 = load ptr, ptr %2, align 8, !tbaa !150
  %13 = load ptr, ptr %3, align 8, !tbaa !78
  %14 = load ptr, ptr %2, align 8, !tbaa !150
  %15 = getelementptr inbounds nuw %struct.client, ptr %14, i32 0, i32 7
  %16 = load i32, ptr %15, align 4, !tbaa !205
  %17 = sext i32 %16 to i64
  %18 = getelementptr inbounds [4 x ptr], ptr getelementptr inbounds nuw (%struct.sharedObjectsStruct, ptr @shared, i32 0, i32 8), i64 0, i64 %17
  %19 = load ptr, ptr %18, align 8, !tbaa !78
  %20 = call ptr @lookupKeyReadOrReply(ptr noundef %12, ptr noundef %13, ptr noundef %19)
  store ptr %20, ptr %4, align 8, !tbaa !78
  %21 = icmp eq ptr %20, null
  br i1 %21, label %27, label %22

22:                                               ; preds = %1
  %23 = load ptr, ptr %2, align 8, !tbaa !150
  %24 = load ptr, ptr %4, align 8, !tbaa !78
  %25 = call i32 @checkType(ptr noundef %23, ptr noundef %24, i32 noundef 3)
  %26 = icmp ne i32 %25, 0
  br i1 %26, label %27, label %28

27:                                               ; preds = %22, %1
  store i32 1, ptr %6, align 4
  br label %45

28:                                               ; preds = %22
  %29 = load ptr, ptr %4, align 8, !tbaa !78
  %30 = load ptr, ptr %2, align 8, !tbaa !150
  %31 = getelementptr inbounds nuw %struct.client, ptr %30, i32 0, i32 16
  %32 = load ptr, ptr %31, align 8, !tbaa !151
  %33 = getelementptr inbounds ptr, ptr %32, i64 2
  %34 = load ptr, ptr %33, align 8, !tbaa !78
  %35 = getelementptr inbounds nuw %struct.redisObject, ptr %34, i32 0, i32 2
  %36 = load ptr, ptr %35, align 8, !tbaa !84
  %37 = call i32 @zsetScore(ptr noundef %29, ptr noundef %36, ptr noundef %5)
  %38 = icmp eq i32 %37, -1
  br i1 %38, label %39, label %41

39:                                               ; preds = %28
  %40 = load ptr, ptr %2, align 8, !tbaa !150
  call void @addReplyNull(ptr noundef %40)
  br label %44

41:                                               ; preds = %28
  %42 = load ptr, ptr %2, align 8, !tbaa !150
  %43 = load double, ptr %5, align 8, !tbaa !9
  call void @addReplyDouble(ptr noundef %42, double noundef %43)
  br label %44

44:                                               ; preds = %41, %39
  store i32 0, ptr %6, align 4
  br label %45

45:                                               ; preds = %44, %27
  call void @llvm.lifetime.end.p0(i64 8, ptr %5) #12
  call void @llvm.lifetime.end.p0(i64 8, ptr %4) #12
  call void @llvm.lifetime.end.p0(i64 8, ptr %3) #12
  %46 = load i32, ptr %6, align 4
  switch i32 %46, label %48 [
    i32 0, label %47
    i32 1, label %47
  ]

47:                                               ; preds = %45, %45
  ret void

48:                                               ; preds = %45
  unreachable
}