; Function Attrs: nounwind uwtable
define dso_local void @zscoreCommand(ptr noundef %0) local_unnamed_addr #0 {
  %2 = alloca double, align 8
  %3 = getelementptr inbounds nuw i8, ptr %0, i64 96
  %4 = load ptr, ptr %3, align 8, !tbaa !136
  %5 = getelementptr inbounds nuw i8, ptr %4, i64 8
  %6 = load ptr, ptr %5, align 8, !tbaa !146
  call void @llvm.lifetime.start.p0(i64 8, ptr nonnull %2) #18
  %7 = getelementptr inbounds nuw i8, ptr %0, i64 28
  %8 = load i32, ptr %7, align 4, !tbaa !185
  %9 = sext i32 %8 to i64
  %10 = getelementptr inbounds [4 x ptr], ptr getelementptr inbounds nuw (i8, ptr @shared, i64 64), i64 0, i64 %9
  %11 = load ptr, ptr %10, align 8, !tbaa !146
  %12 = tail call ptr @lookupKeyReadOrReply(ptr noundef %0, ptr noundef %6, ptr noundef %11) #18
  %13 = icmp eq ptr %12, null
  br i1 %13, label %42, label %14

14:                                               ; preds = %1
  %15 = tail call i32 @checkType(ptr noundef nonnull %0, ptr noundef nonnull %12, i32 noundef 3) #18
  %.not = icmp eq i32 %15, 0
  br i1 %.not, label %16, label %42

16:                                               ; preds = %14
  %17 = load ptr, ptr %3, align 8, !tbaa !136
  %18 = getelementptr inbounds nuw i8, ptr %17, i64 16
  %19 = load ptr, ptr %18, align 8, !tbaa !146
  %20 = getelementptr inbounds nuw i8, ptr %19, i64 8
  %21 = load ptr, ptr %20, align 8, !tbaa !75
  %.not11 = icmp eq ptr %21, null
  br i1 %.not11, label %40, label %22

22:                                               ; preds = %16
  %23 = load i32, ptr %12, align 8
  %24 = lshr i32 %23, 4
  %25 = and i32 %24, 15
  switch i32 %25, label %39 [
    i32 11, label %26
    i32 7, label %31
  ]

26:                                               ; preds = %22
  %27 = getelementptr inbounds nuw i8, ptr %12, i64 8
  %28 = load ptr, ptr %27, align 8, !tbaa !75
  %29 = call ptr @zzlFind(ptr noundef %28, ptr noundef nonnull %21, ptr noundef nonnull %2)
  %30 = icmp eq ptr %29, null
  br i1 %30, label %40, label %.zsetScore.exit_crit_edge

.zsetScore.exit_crit_edge:                        ; preds = %26
  %.pre = load double, ptr %2, align 8, !tbaa !5
  br label %zsetScore.exit

31:                                               ; preds = %22
  %32 = getelementptr inbounds nuw i8, ptr %12, i64 8
  %33 = load ptr, ptr %32, align 8, !tbaa !75
  %34 = load ptr, ptr %33, align 8, !tbaa !125
  %35 = tail call ptr @dictFind(ptr noundef %34, ptr noundef nonnull %21) #18
  %36 = icmp eq ptr %35, null
  br i1 %36, label %40, label %.thread.i

.thread.i:                                        ; preds = %31
  %37 = tail call ptr @dictGetVal(ptr noundef nonnull %35) #18
  %38 = load double, ptr %37, align 8, !tbaa !5
  store double %38, ptr %2, align 8, !tbaa !5
  br label %zsetScore.exit

39:                                               ; preds = %22
  tail call void (ptr, i32, ptr, ...) @_serverPanic(ptr noundef nonnull @.str.1, i32 noundef 1359, ptr noundef nonnull @.str.9) #18
  tail call void @abort() #19
  unreachable

40:                                               ; preds = %16, %26, %31
  call void @addReplyNull(ptr noundef nonnull %0) #18
  br label %42

zsetScore.exit:                                   ; preds = %.zsetScore.exit_crit_edge, %.thread.i
  %41 = phi double [ %.pre, %.zsetScore.exit_crit_edge ], [ %38, %.thread.i ]
  call void @addReplyDouble(ptr noundef nonnull %0, double noundef %41) #18
  br label %42

42:                                               ; preds = %40, %zsetScore.exit, %1, %14
  call void @llvm.lifetime.end.p0(i64 8, ptr nonnull %2) #18
  ret void
}